target datalayout = "e-m:e-p270:32:32-p271:32:32-p272:64:64-i64:64-i128:128-f80:128-n8:16:32:64-S128"
target triple = "x86_64-unknown-linux-gnu"

%class.btGImpactCollisionAlgorithm = type { %class.btActivatingCollisionAlgorithm, ptr, ptr, ptr, ptr, i32, i32, i32, i32 }
%class.btActivatingCollisionAlgorithm = type { %class.btCollisionAlgorithm }
%class.btCollisionAlgorithm = type { ptr, ptr }

; Function Attrs: mustprogress uwtable
define linkonce_odr dso_local void @_ZN27btGImpactCollisionAlgorithm22destroyConvexAlgorithmEv(ptr noundef nonnull align 8 dereferenceable(64) %this) #2 comdat align 2 {
entry:
  %this.addr = alloca ptr, align 8
  store ptr %this, ptr %this.addr, align 8
  %this1 = load ptr, ptr %this.addr, align 8
  %m_convex_algorithm = getelementptr inbounds %class.btGImpactCollisionAlgorithm, ptr %this1, i32 0, i32 1
  %0 = load ptr, ptr %m_convex_algorithm, align 8
  %tobool = icmp ne ptr %0, null
  br i1 %tobool, label %if.then, label %if.end

if.then:                                          ; preds = %entry
  %m_convex_algorithm2 = getelementptr inbounds %class.btGImpactCollisionAlgorithm, ptr %this1, i32 0, i32 1
  %1 = load ptr, ptr %m_convex_algorithm2, align 8
  %vtable = load ptr, ptr %1, align 8
  %vfn = getelementptr inbounds ptr, ptr %vtable, i64 0
  %2 = load ptr, ptr %vfn, align 8
  call void %2(ptr noundef nonnull align 8 dereferenceable(16) %1) #9
  %m_dispatcher = getelementptr inbounds %class.btCollisionAlgorithm, ptr %this1, i32 0, i32 1
  %3 = load ptr, ptr %m_dispatcher, align 8
  %m_convex_algorithm3 = getelementptr inbounds %class.btGImpactCollisionAlgorithm, ptr %this1, i32 0, i32 1
  %4 = load ptr, ptr %m_convex_algorithm3, align 8
  %vtable4 = load ptr, ptr %3, align 8
  %vfn5 = getelementptr inbounds ptr, ptr %vtable4, i64 15
  %5 = load ptr, ptr %vfn5, align 8
  call void %5(ptr noundef nonnull align 8 dereferenceable(8) %3, ptr noundef %4)
  %m_convex_algorithm6 = getelementptr inbounds %class.btGImpactCollisionAlgorithm, ptr %this1, i32 0, i32 1
  store ptr null, ptr %m_convex_algorithm6, align 8
  br label %if.end

if.end:                                           ; preds = %if.then, %entry
  ret void
}

; Function Attrs: mustprogress uwtable
define linkonce_odr dso_local void @_ZN27btGImpactCollisionAlgorithm23destroyContactManifoldsEv(ptr noundef nonnull align 8 dereferenceable(64) %this) #2 comdat align 2 {
entry:
  %this.addr = alloca ptr, align 8
  store ptr %this, ptr %this.addr, align 8
  %this1 = load ptr, ptr %this.addr, align 8
  %m_manifoldPtr = getelementptr inbounds %class.btGImpactCollisionAlgorithm, ptr %this1, i32 0, i32 2
  %0 = load ptr, ptr %m_manifoldPtr, align 8
  %cmp = icmp eq ptr %0, null
  br i1 %cmp, label %if.then, label %if.end

if.then:                                          ; preds = %entry
  br label %return

if.end:                                           ; preds = %entry
  %m_dispatcher = getelementptr inbounds %class.btCollisionAlgorithm, ptr %this1, i32 0, i32 1
  %1 = load ptr, ptr %m_dispatcher, align 8
  %m_manifoldPtr2 = getelementptr inbounds %class.btGImpactCollisionAlgorithm, ptr %this1, i32 0, i32 2
  %2 = load ptr, ptr %m_manifoldPtr2, align 8
  %vtable = load ptr, ptr %1, align 8
  %vfn = getelementptr inbounds ptr, ptr %vtable, i64 4
  %3 = load ptr, ptr %vfn, align 8
  call void %3(ptr noundef nonnull align 8 dereferenceable(8) %1, ptr noundef %2)
  %m_manifoldPtr3 = getelementptr inbounds %class.btGImpactCollisionAlgorithm, ptr %this1, i32 0, i32 2
  store ptr null, ptr %m_manifoldPtr3, align 8
  br label %return

return:                                           ; preds = %if.end, %if.then
  ret void
}

; Function Attrs: mustprogress uwtable
define linkonce_odr dso_local void @_ZN27btGImpactCollisionAlgorithm10clearCacheEv(ptr noundef nonnull align 8 dereferenceable(64) %this) #2 comdat align 2 {
entry:
  %this.addr = alloca ptr, align 8
  store ptr %this, ptr %this.addr, align 8
  %this1 = load ptr, ptr %this.addr, align 8
  call void @_ZN27btGImpactCollisionAlgorithm23destroyContactManifoldsEv(ptr noundef nonnull align 8 dereferenceable(64) %this1)
  call void @_ZN27btGImpactCollisionAlgorithm22destroyConvexAlgorithmEv(ptr noundef nonnull align 8 dereferenceable(64) %this1)
  %m_triface0 = getelementptr inbounds %class.btGImpactCollisionAlgorithm, ptr %this1, i32 0, i32 5
  store i32 -1, ptr %m_triface0, align 8
  %m_part0 = getelementptr inbounds %class.btGImpactCollisionAlgorithm, ptr %this1, i32 0, i32 6
  store i32 -1, ptr %m_part0, align 4
  %m_triface1 = getelementptr inbounds %class.btGImpactCollisionAlgorithm, ptr %this1, i32 0, i32 7
  store i32 -1, ptr %m_triface1, align 8
  %m_part1 = getelementptr inbounds %class.btGImpactCollisionAlgorithm, ptr %this1, i32 0, i32 8
  store i32 -1, ptr %m_part1, align 4
  ret void
}

; Function Attrs: mustprogress nounwind uwtable
define dso_local void @_ZN27btGImpactCollisionAlgorithmD2Ev(ptr noundef nonnull align 8 dereferenceable(64) %this) unnamed_addr #1 align 2 personality ptr @__gxx_personality_v0 {
entry:
  %this.addr = alloca ptr, align 8
  store ptr %this, ptr %this.addr, align 8
  %this1 = load ptr, ptr %this.addr, align 8
  store ptr getelementptr inbounds ({ [7 x ptr] }, ptr @_ZTV27btGImpactCollisionAlgorithm, i32 0, i32 0, i32 2), ptr %this1, align 8
  invoke void @_ZN27btGImpactCollisionAlgorithm10clearCacheEv(ptr noundef nonnull align 8 dereferenceable(64) %this1)
          to label %invoke.cont unwind label %terminate.lpad

invoke.cont:                                      ; preds = %entry
  call void @_ZN30btActivatingCollisionAlgorithmD2Ev(ptr noundef nonnull align 8 dereferenceable(16) %this1) #9
  ret void

terminate.lpad:                                   ; preds = %entry
  %0 = landingpad { ptr, i32 }
          catch ptr null
  %1 = extractvalue { ptr, i32 } %0, 0
  call void @__clang_call_terminate(ptr %1) #11
  unreachable
}