; Function Attrs: mustprogress nounwind uwtable
define dso_local void @_ZN27btGImpactCollisionAlgorithmD2Ev(ptr noundef nonnull align 8 dereferenceable(64) %this) unnamed_addr #2 align 2 personality ptr @__gxx_personality_v0 {
entry:
  store ptr getelementptr inbounds ({ [7 x ptr] }, ptr @_ZTV27btGImpactCollisionAlgorithm, i64 0, i32 0, i64 2), ptr %this, align 8
  %m_manifoldPtr.i.i = getelementptr inbounds i8, ptr %this, i64 24
  %0 = load ptr, ptr %m_manifoldPtr.i.i, align 8
  %cmp.i.i = icmp eq ptr %0, null
  br i1 %cmp.i.i, label %_ZN27btGImpactCollisionAlgorithm23destroyContactManifoldsEv.exit.i, label %if.end.i.i

if.end.i.i:                                       ; preds = %entry
  %m_dispatcher.i.i = getelementptr inbounds i8, ptr %this, i64 8
  %1 = load ptr, ptr %m_dispatcher.i.i, align 8
  %vtable.i.i = load ptr, ptr %1, align 8
  %vfn.i.i = getelementptr inbounds i8, ptr %vtable.i.i, i64 32
  %2 = load ptr, ptr %vfn.i.i, align 8
  invoke void %2(ptr noundef nonnull align 8 dereferenceable(8) %1, ptr noundef nonnull %0)
          to label %.noexc unwind label %terminate.lpad

.noexc:                                           ; preds = %if.end.i.i
  store ptr null, ptr %m_manifoldPtr.i.i, align 8
  br label %_ZN27btGImpactCollisionAlgorithm23destroyContactManifoldsEv.exit.i

_ZN27btGImpactCollisionAlgorithm23destroyContactManifoldsEv.exit.i: ; preds = %.noexc, %entry
  %m_convex_algorithm.i.i = getelementptr inbounds i8, ptr %this, i64 16
  %3 = load ptr, ptr %m_convex_algorithm.i.i, align 8
  %tobool.not.i.i = icmp eq ptr %3, null
  br i1 %tobool.not.i.i, label %invoke.cont, label %if.then.i.i

if.then.i.i:                                      ; preds = %_ZN27btGImpactCollisionAlgorithm23destroyContactManifoldsEv.exit.i
  %vtable.i1.i = load ptr, ptr %3, align 8
  %4 = load ptr, ptr %vtable.i1.i, align 8
  tail call void %4(ptr noundef nonnull align 8 dereferenceable(16) %3) #14
  %m_dispatcher.i2.i = getelementptr inbounds i8, ptr %this, i64 8
  %5 = load ptr, ptr %m_dispatcher.i2.i, align 8
  %6 = load ptr, ptr %m_convex_algorithm.i.i, align 8
  %vtable4.i.i = load ptr, ptr %5, align 8
  %vfn5.i.i = getelementptr inbounds i8, ptr %vtable4.i.i, i64 120
  %7 = load ptr, ptr %vfn5.i.i, align 8
  invoke void %7(ptr noundef nonnull align 8 dereferenceable(8) %5, ptr noundef %6)
          to label %.noexc1 unwind label %terminate.lpad

.noexc1:                                          ; preds = %if.then.i.i
  store ptr null, ptr %m_convex_algorithm.i.i, align 8
  br label %invoke.cont

invoke.cont:                                      ; preds = %.noexc1, %_ZN27btGImpactCollisionAlgorithm23destroyContactManifoldsEv.exit.i
  %m_triface0.i = getelementptr inbounds i8, ptr %this, i64 48
  tail call void @llvm.memset.p0.i64(ptr noundef nonnull align 8 dereferenceable(16) %m_triface0.i, i8 -1, i64 16, i1 false)
  tail call void @_ZN30btActivatingCollisionAlgorithmD2Ev(ptr noundef nonnull align 8 dereferenceable(16) %this) #14
  ret void

terminate.lpad:                                   ; preds = %if.then.i.i, %if.end.i.i
  %8 = landingpad { ptr, i32 }
          catch ptr null
  %9 = extractvalue { ptr, i32 } %8, 0
  tail call void @__clang_call_terminate(ptr %9) #15
  unreachable
}